; Function Attrs: mustprogress uwtable
define noundef i32 @_ZN3zmq29zap_client_common_handshake_t29receive_and_process_zap_replyEv(ptr noundef nonnull align 8 dereferenceable(80) %this) unnamed_addr #0 align 2 {
entry:
  %state = getelementptr inbounds i8, ptr %this, i64 72
  %0 = load i32, ptr %state, align 8
  %cmp.not = icmp eq i32 %0, 3
  br i1 %cmp.not, label %do.end, label %if.then

if.then:                                          ; preds = %entry
  %1 = load ptr, ptr @stderr, align 8
  %call = tail call i32 (ptr, ptr, ...) @fprintf(ptr noundef %1, ptr noundef nonnull @.str.2, ptr noundef nonnull @.str.3, ptr noundef nonnull @.str.1, i32 noundef 283) #15
  %2 = load ptr, ptr @stderr, align 8
  %call2 = tail call i32 @fflush(ptr noundef %2)
  tail call void @_ZN3zmq9zmq_abortEPKc(ptr noundef nonnull @.str.3)
  br label %do.end

do.end:                                           ; preds = %entry, %if.then
  %call3 = tail call noundef i32 @_ZN3zmq12zap_client_t29receive_and_process_zap_replyEv(ptr noundef nonnull align 8 dereferenceable(72) %this)
  ret i32 %call3
}